target datalayout = "e-m:e-p270:32:32-p271:32:32-p272:64:64-i64:64-i128:128-f80:128-n8:16:32:64-S128"
target triple = "x86_64-pc-linux-gnu"

%"struct.Luau::Lexeme" = type { i32, %"struct.Luau::Location", i32, %union.anon }
%"struct.Luau::Location" = type { %"struct.Luau::Position", %"struct.Luau::Position" }
%"struct.Luau::Position" = type { i32, i32 }
%union.anon = type { ptr }
%"class.Luau::Lexer" = type { ptr, i64, i32, i32, i32, %"struct.Luau::Lexeme", %"struct.Luau::Location", ptr, i8, i8, %"class.std::vector" }
%"class.std::vector" = type { %"struct.std::_Vector_base" }
%"struct.std::_Vector_base" = type { %"struct.std::_Vector_base<Luau::Lexer::BraceType, std::allocator<Luau::Lexer::BraceType>>::_Vector_impl" }
%"struct.std::_Vector_base<Luau::Lexer::BraceType, std::allocator<Luau::Lexer::BraceType>>::_Vector_impl" = type { %"struct.std::_Vector_base<Luau::Lexer::BraceType, std::allocator<Luau::Lexer::BraceType>>::_Vector_impl_data" }
%"struct.std::_Vector_base<Luau::Lexer::BraceType, std::allocator<Luau::Lexer::BraceType>>::_Vector_impl_data" = type { ptr, ptr, ptr }

; Function Attrs: alwaysinline mustprogress nounwind uwtable
define linkonce_odr dso_local void @_ZN4Luau5Lexer7consumeEv(ptr noundef nonnull align 8 dereferenceable(120) %0) #8 comdat align 2 {
  %2 = alloca ptr, align 8
  store ptr %0, ptr %2, align 8, !tbaa !71
  %3 = load ptr, ptr %2, align 8
  %4 = getelementptr inbounds nuw %"class.Luau::Lexer", ptr %3, i32 0, i32 2
  %5 = load i32, ptr %4, align 8, !tbaa !80
  %6 = add i32 %5, 1
  store i32 %6, ptr %4, align 8, !tbaa !80
  ret void
}

; Function Attrs: alwaysinline mustprogress nounwind uwtable
define linkonce_odr dso_local noundef signext i8 @_ZNK4Luau5Lexer6peekchEv(ptr noundef nonnull align 8 dereferenceable(120) %0) #8 comdat align 2 {
  %2 = alloca ptr, align 8
  store ptr %0, ptr %2, align 8, !tbaa !71
  %3 = load ptr, ptr %2, align 8
  %4 = getelementptr inbounds nuw %"class.Luau::Lexer", ptr %3, i32 0, i32 2
  %5 = load i32, ptr %4, align 8, !tbaa !80
  %6 = zext i32 %5 to i64
  %7 = getelementptr inbounds nuw %"class.Luau::Lexer", ptr %3, i32 0, i32 1
  %8 = load i64, ptr %7, align 8, !tbaa !79
  %9 = icmp ult i64 %6, %8
  br i1 %9, label %10, label %19

10:                                               ; preds = %1
  %11 = getelementptr inbounds nuw %"class.Luau::Lexer", ptr %3, i32 0, i32 0
  %12 = load ptr, ptr %11, align 8, !tbaa !73
  %13 = getelementptr inbounds nuw %"class.Luau::Lexer", ptr %3, i32 0, i32 2
  %14 = load i32, ptr %13, align 8, !tbaa !80
  %15 = zext i32 %14 to i64
  %16 = getelementptr inbounds nuw i8, ptr %12, i64 %15
  %17 = load i8, ptr %16, align 1, !tbaa !34
  %18 = sext i8 %17 to i32
  br label %20

19:                                               ; preds = %1
  br label %20

20:                                               ; preds = %19, %10
  %21 = phi i32 [ %18, %10 ], [ 0, %19 ]
  %22 = trunc i32 %21 to i8
  ret i8 %22
}

; Function Attrs: mustprogress uwtable
define dso_local noundef i32 @_ZN4Luau5Lexer17skipLongSeparatorEv(ptr noundef nonnull align 8 dereferenceable(120) %0) #4 align 2 {
  %2 = alloca ptr, align 8
  %3 = alloca i8, align 1
  %4 = alloca i32, align 4
  store ptr %0, ptr %2, align 8, !tbaa !71
  %5 = load ptr, ptr %2, align 8
  call void @llvm.lifetime.start.p0(i64 1, ptr %3) #18
  %6 = call noundef signext i8 @_ZNK4Luau5Lexer6peekchEv(ptr noundef nonnull align 8 dereferenceable(120) %5)
  store i8 %6, ptr %3, align 1, !tbaa !34
  call void @_ZN4Luau5Lexer7consumeEv(ptr noundef nonnull align 8 dereferenceable(120) %5)
  call void @llvm.lifetime.start.p0(i64 4, ptr %4) #18
  store i32 0, ptr %4, align 4, !tbaa !4
  br label %7

7:                                                ; preds = %11, %1
  %8 = call noundef signext i8 @_ZNK4Luau5Lexer6peekchEv(ptr noundef nonnull align 8 dereferenceable(120) %5)
  %9 = sext i8 %8 to i32
  %10 = icmp eq i32 %9, 61
  br i1 %10, label %11, label %14

11:                                               ; preds = %7
  call void @_ZN4Luau5Lexer7consumeEv(ptr noundef nonnull align 8 dereferenceable(120) %5)
  %12 = load i32, ptr %4, align 4, !tbaa !4
  %13 = add nsw i32 %12, 1
  store i32 %13, ptr %4, align 4, !tbaa !4
  br label %7, !llvm.loop !107

14:                                               ; preds = %7
  %15 = load i8, ptr %3, align 1, !tbaa !34
  %16 = sext i8 %15 to i32
  %17 = call noundef signext i8 @_ZNK4Luau5Lexer6peekchEv(ptr noundef nonnull align 8 dereferenceable(120) %5)
  %18 = sext i8 %17 to i32
  %19 = icmp eq i32 %16, %18
  br i1 %19, label %20, label %22

20:                                               ; preds = %14
  %21 = load i32, ptr %4, align 4, !tbaa !4
  br label %26

22:                                               ; preds = %14
  %23 = load i32, ptr %4, align 4, !tbaa !4
  %24 = sub nsw i32 0, %23
  %25 = sub nsw i32 %24, 1
  br label %26

26:                                               ; preds = %22, %20
  %27 = phi i32 [ %21, %20 ], [ %25, %22 ]
  call void @llvm.lifetime.end.p0(i64 4, ptr %4) #18
  call void @llvm.lifetime.end.p0(i64 1, ptr %3) #18
  ret i32 %27
}