; Function Attrs: mustprogress nofree norecurse nosync nounwind memory(read, argmem: readwrite, inaccessiblemem: none) uwtable
define dso_local noundef i32 @_ZN4Luau5Lexer17skipLongSeparatorEv(ptr noundef nonnull align 8 captures(none) dereferenceable(120) %0) local_unnamed_addr #13 align 2 {
  %2 = getelementptr inbounds nuw i8, ptr %0, i64 16
  %3 = load i32, ptr %2, align 8, !tbaa !60
  %4 = zext i32 %3 to i64
  %5 = getelementptr inbounds nuw i8, ptr %0, i64 8
  %6 = load i64, ptr %5, align 8, !tbaa !59
  %7 = icmp ugt i64 %6, %4
  br i1 %7, label %8, label %_ZNK4Luau5Lexer6peekchEv.exit5

8:                                                ; preds = %1
  %9 = load ptr, ptr %0, align 8, !tbaa !51
  %10 = getelementptr inbounds nuw i8, ptr %9, i64 %4
  %11 = load i8, ptr %10, align 1, !tbaa !15
  br label %_ZNK4Luau5Lexer6peekchEv.exit5

_ZNK4Luau5Lexer6peekchEv.exit5:                   ; preds = %1, %8
  %12 = phi i8 [ %11, %8 ], [ 0, %1 ]
  %13 = add i32 %3, 1
  store i32 %13, ptr %2, align 8, !tbaa !60
  %14 = zext i32 %13 to i64
  %15 = icmp ugt i64 %6, %14
  br i1 %15, label %_ZNK4Luau5Lexer6peekchEv.exit4.lr.ph, label %_ZNK4Luau5Lexer6peekchEv.exit

_ZNK4Luau5Lexer6peekchEv.exit4.lr.ph:             ; preds = %_ZNK4Luau5Lexer6peekchEv.exit5
  %16 = load ptr, ptr %0, align 8, !tbaa !51
  br label %_ZNK4Luau5Lexer6peekchEv.exit4

_ZNK4Luau5Lexer6peekchEv.exit4:                   ; preds = %_ZNK4Luau5Lexer6peekchEv.exit4.lr.ph, %22
  %17 = phi i64 [ %14, %_ZNK4Luau5Lexer6peekchEv.exit4.lr.ph ], [ %25, %22 ]
  %.09 = phi i32 [ 0, %_ZNK4Luau5Lexer6peekchEv.exit4.lr.ph ], [ %24, %22 ]
  %18 = phi i32 [ %13, %_ZNK4Luau5Lexer6peekchEv.exit4.lr.ph ], [ %23, %22 ]
  %19 = getelementptr inbounds nuw i8, ptr %16, i64 %17
  %20 = load i8, ptr %19, align 1, !tbaa !15
  %21 = icmp eq i8 %20, 61
  br i1 %21, label %22, label %_ZNK4Luau5Lexer6peekchEv.exit

22:                                               ; preds = %_ZNK4Luau5Lexer6peekchEv.exit4
  %23 = add i32 %18, 1
  store i32 %23, ptr %2, align 8, !tbaa !60
  %24 = add nuw nsw i32 %.09, 1
  %25 = zext i32 %23 to i64
  %26 = icmp ugt i64 %6, %25
  br i1 %26, label %_ZNK4Luau5Lexer6peekchEv.exit4, label %_ZNK4Luau5Lexer6peekchEv.exit, !llvm.loop !75

_ZNK4Luau5Lexer6peekchEv.exit:                    ; preds = %22, %_ZNK4Luau5Lexer6peekchEv.exit4, %_ZNK4Luau5Lexer6peekchEv.exit5
  %.08 = phi i32 [ 0, %_ZNK4Luau5Lexer6peekchEv.exit5 ], [ %24, %22 ], [ %.09, %_ZNK4Luau5Lexer6peekchEv.exit4 ]
  %27 = phi i8 [ 0, %_ZNK4Luau5Lexer6peekchEv.exit5 ], [ 0, %22 ], [ %20, %_ZNK4Luau5Lexer6peekchEv.exit4 ]
  %28 = icmp ne i8 %12, %27
  %29 = sext i1 %28 to i32
  %30 = xor i32 %.08, %29
  ret i32 %30
}